target datalayout = "e-m:e-p270:32:32-p271:32:32-p272:64:64-i64:64-i128:128-f80:128-n8:16:32:64-S128"
target triple = "x86_64-pc-linux-gnu"

%class.LibRaw = type { ptr, %struct.libraw_data_t, ptr, %struct.libraw_internal_data_t, [2048 x %struct.decode], ptr, ptr, [10 x %struct.tiff_ifd_t], %class.libraw_memmgr, %struct.libraw_callbacks_t, { i64, i64 }, { i64, i64 }, { i64, i64 }, ptr, ptr, ptr, i64, ptr, ptr, ptr, ptr }
%struct.libraw_data_t = type { ptr, %struct.libraw_image_sizes_t, %struct.libraw_iparams_t, %struct.libraw_lensinfo_t, %struct.libraw_makernotes_t, %struct.libraw_shootinginfo_t, %struct.libraw_output_params_t, %struct.libraw_raw_unpack_params_t, i32, i32, %struct.libraw_colordata_t, %struct.libraw_imgother_t, %struct.libraw_thumbnail_t, %struct.libraw_thumbnail_list_t, %struct.libraw_rawdata_t, ptr }
%struct.libraw_image_sizes_t = type { i16, i16, i16, i16, i16, i16, i16, i16, i32, double, i32, [8 x [4 x i32]], i16, [2 x %struct.libraw_raw_inset_crop_t] }
%struct.libraw_raw_inset_crop_t = type { i16, i16, i16, i16 }
%struct.libraw_iparams_t = type { [4 x i8], [64 x i8], [64 x i8], [64 x i8], [64 x i8], [64 x i8], i32, i32, i32, i32, i32, i32, [6 x [6 x i8]], [6 x [6 x i8]], [5 x i8], i32, ptr }
%struct.libraw_lensinfo_t = type { float, float, float, float, float, [128 x i8], [128 x i8], [128 x i8], [128 x i8], i16, %struct.libraw_nikonlens_t, %struct.libraw_dnglens_t, %struct.libraw_makernotes_lens_t }
%struct.libraw_nikonlens_t = type { float, i8, i8, i8, i8 }
%struct.libraw_dnglens_t = type { float, float, float, float }
%struct.libraw_makernotes_lens_t = type { i64, [128 x i8], i16, i16, i64, i16, i16, [64 x i8], i16, [16 x i8], [16 x i8], float, float, float, float, float, float, float, float, float, float, float, float, float, float, float, i64, [128 x i8], i64, [128 x i8], i64, [128 x i8], i16, float }
%struct.libraw_makernotes_t = type { %struct.libraw_canon_makernotes_t, %struct.libraw_nikon_makernotes_t, %struct.libraw_hasselblad_makernotes_t, %struct.libraw_fuji_info_t, %struct.libraw_olympus_makernotes_t, %struct.libraw_sony_info_t, %struct.libraw_kodak_makernotes_t, %struct.libraw_panasonic_makernotes_t, %struct.libraw_pentax_makernotes_t, %struct.libraw_p1_makernotes_t, %struct.libraw_ricoh_makernotes_t, %struct.libraw_samsung_makernotes_t, %struct.libraw_metadata_common_t }
%struct.libraw_canon_makernotes_t = type { i32, i32, i32, i32, [4 x i32], i32, [4 x i32], i16, i16, i8, i16, i16, i16, i16, i16, i16, i16, i16, i16, i16, i16, i16, i16, i32, float, i16, i16, i16, i32, i16, i32, i32, i16, i32, %struct.libraw_area_t, %struct.libraw_area_t, %struct.libraw_area_t, %struct.libraw_area_t, %struct.libraw_area_t, [2 x i16] }
%struct.libraw_area_t = type { i16, i16, i16, i16 }
%struct.libraw_nikon_makernotes_t = type { double, i16, i16, [7 x i8], i8, i8, [13 x i8], [20 x i8], [4 x i8], [4 x i8], [4 x i8], i8, i8, i8, i8, i8, [2 x i8], i8, i8, i8, i8, i8, [4 x i8], [4 x i8], i8, i16, i32, i32, i32, i32, [4 x double], i8, i8, i8, i32, i32, i32, i8, [4 x i16], i16, %struct.libraw_sensor_highspeed_crop_t, i16, i16, i16, i32, [20 x i8], [20 x i8], i32, i16, double, double, double }
%struct.libraw_sensor_highspeed_crop_t = type { i16, i16, i16, i16 }
%struct.libraw_hasselblad_makernotes_t = type { i32, double, [8 x i8], [64 x i8], [64 x i8], i32, i32, i32, i32, [32 x i8], [64 x i8], i32, [2 x i32], [2 x i32], [4 x [3 x double]] }
%struct.libraw_fuji_info_t = type { float, i16, i16, i16, i16, i16, i16, i16, i16, [33 x i8], [33 x i8], float, i16, i16, [2 x i16], i16, i32, i32, i16, [3 x i16], i16, i16, i16, i16, i16, i32, i16, [13 x i8], [5 x i8], [5 x i8], i32, i16, i32, i16, [9 x i16], [32 x i32], i32, i32, i32, [2 x float], i32 }
%struct.libraw_olympus_makernotes_t = type { [6 x i8], i16, [2 x i32], [5 x i16], i16, [2 x i16], i16, i16, [64 x i32], [5 x double], i16, i8, [3 x i16], [3 x i32], i16, i16, i16, i16, double, [4 x i16], [2 x i32], i8, i32, i16, i16 }
%struct.libraw_sony_info_t = type { i16, i8, i8, i32, i8, i32, i8, i8, i16, [2 x i16], i8, i8, i16, [10 x i8], i8, i8, [4 x i16], i16, i8, i8, i8, i16, i32, i16, [2 x i16], i16, i16, i16, i16, i16, i16, i16, i32, float, i16, i32, i32, i16, [20 x i8], i32, i16, i32, i8, i8, i16, i16, i16, i16, i16, i16, i16, i16, i16, i32, i16, [16 x i8], float }
%struct.libraw_kodak_makernotes_t = type { i16, i16, i16, i16, i16, i16, [3 x [3 x float]], [3 x [3 x float]], [3 x [3 x float]], [3 x [3 x float]], [3 x [3 x float]], [3 x [3 x float]], i16, i16, i16, i16, float, float }
%struct.libraw_panasonic_makernotes_t = type { i16, i16, [8 x float], i32, float, [3 x i32], i16, i16, i32, i32 }
%struct.libraw_pentax_makernotes_t = type { [4 x i8], [2 x i16], [2 x i16], i16, i32, i32, i16, i16, i8, i8, i16 }
%struct.libraw_p1_makernotes_t = type { [64 x i8], [64 x i8], [256 x i8], [64 x i8] }
%struct.libraw_ricoh_makernotes_t = type { i16, [2 x i32], [2 x i32], i16, i32, i32, i32, i32, i16, i16, i16, i16, i16, i16, double, double }
%struct.libraw_samsung_makernotes_t = type { [4 x i32], [4 x i32], [2 x i32], [11 x i32], double, i32, [32 x i8] }
%struct.libraw_metadata_common_t = type { float, float, float, float, float, float, float, float, float, float, float, float, float, float, float, float, i16, [128 x i8], float, [4 x %struct.libraw_afinfo_item_t], i32 }
%struct.libraw_afinfo_item_t = type { i32, i16, i32, i32, ptr }
%struct.libraw_shootinginfo_t = type { i16, i16, i16, i16, i16, i16, i16, [64 x i8], [64 x i8] }
%struct.libraw_output_params_t = type { [4 x i32], [4 x i32], [4 x double], [6 x double], [4 x float], float, float, i32, i32, i32, i32, i32, i32, i32, ptr, ptr, ptr, ptr, i32, i32, i32, i32, i32, i32, [4 x i32], i32, i32, float, float, i32, i32, i32, i32, i32, i32, i32, i32, float, float, i32, i32 }
%struct.libraw_raw_unpack_params_t = type { i32, i32, i32, i32, i32, i32, i32, float, [5 x i8], ptr }
%struct.libraw_colordata_t = type { [65536 x i16], [4104 x i32], i32, i32, i32, [4 x i64], float, float, [8 x [8 x i16]], [4 x float], [4 x float], [3 x [4 x float]], [3 x [4 x float]], [3 x [4 x float]], [4 x [3 x float]], %struct.ph1_t, float, float, [64 x i8], [64 x i8], [64 x i8], [64 x i8], [17 x i8], [64 x i8], ptr, i32, [8 x i32], [2 x %struct.libraw_dng_color_t], %struct.libraw_dng_levels_t, [256 x [4 x i32]], [64 x [5 x float]], i32, [2 x %struct.libraw_P1_color_t], i32, i32 }
%struct.ph1_t = type { i32, i32, i32, i32, i32, i32, i32, i32, float }
%struct.libraw_dng_color_t = type { i32, i16, [4 x [4 x float]], [4 x [3 x float]], [3 x [4 x float]] }
%struct.libraw_dng_levels_t = type { i32, [4104 x i32], i32, [4104 x float], float, [4 x i32], [4 x i16], [4 x float], i32, [4 x float], [4 x float], float, float }
%struct.libraw_P1_color_t = type { [9 x float] }
%struct.libraw_imgother_t = type { float, float, float, float, i64, i32, [32 x i32], %struct.libraw_gps_info_t, [512 x i8], [64 x i8], [4 x float] }
%struct.libraw_gps_info_t = type { [3 x float], [3 x float], [3 x float], float, i8, i8, i8, i8, i8 }
%struct.libraw_thumbnail_t = type { i32, i16, i16, i32, i32, ptr }
%struct.libraw_thumbnail_list_t = type { i32, [8 x %struct.libraw_thumbnail_item_t] }
%struct.libraw_thumbnail_item_t = type { i32, i16, i16, i16, i32, i32, i64 }
%struct.libraw_rawdata_t = type { ptr, ptr, ptr, ptr, ptr, ptr, ptr, ptr, ptr, %struct.libraw_iparams_t, %struct.libraw_image_sizes_t, %struct.libraw_internal_output_params_t, %struct.libraw_colordata_t }
%struct.libraw_internal_output_params_t = type { i32, i32, i32, i16, i16 }
%struct.libraw_internal_data_t = type { %struct.internal_data_t, %struct.libraw_internal_output_params_t, %struct.output_data_t, %struct.identify_data_t, %struct.unpacker_data_t }
%struct.internal_data_t = type { ptr, ptr, i32, ptr, i64, i64, [4 x i32] }
%struct.output_data_t = type { ptr, ptr }
%struct.identify_data_t = type { i32, i64, i64, i32, i32, i32 }
%struct.unpacker_data_t = type { i16, [4 x i16], [3 x i16], i32, i64, i64, i64, i64, i64, i64, i32, i32, i32, i32, i32, i32, i32, i32, i32, i32, i32, i32, i32, i32, i32, i32, i32, i64, i32, i32, i32, i32, i32, i32, i32, i32, i32, %struct.pana8_tags_t, [16 x %struct.crx_data_header_t], i32, i32, i16, i16, i32, i32, i32, i32, i32, i32, i32, [20 x i32], i16 }
%struct.pana8_tags_t = type { [6 x i32], [6 x i16], i16, [4 x i16], [17 x i16], [17 x i16], [17 x i16], i16, i16, [5 x i64], [5 x i16], [5 x i32], [5 x i16], [5 x i16] }
%struct.crx_data_header_t = type { i32, i32, i32, i32, i32, i32, i32, i32, i32, i32, i32, i32, i32, i32, i32, i64, i32, ptr, i32, i32, i32, ptr, i32, ptr }
%struct.decode = type { [2 x ptr], i32 }
%struct.tiff_ifd_t = type { i32, i32, i32, i32, i32, i32, i32, i32, i32, i32, i32, i32, i32, i32, i32, ptr, i32, ptr, i32, i32, i32, i32, i32, i32, i32, float, i64, i64, i32, [2 x %struct.libraw_dng_color_t], %struct.libraw_dng_levels_t, i32 }
%class.libraw_memmgr = type <{ ptr, i32, [4 x i8] }>
%struct.libraw_callbacks_t = type { ptr, ptr, ptr, ptr, ptr, ptr, ptr, ptr, ptr, ptr, ptr, ptr, ptr, ptr, ptr, ptr, ptr }

; Function Attrs: mustprogress uwtable
define void @_ZN6LibRaw16parseLeicaLensIDEv(ptr noundef nonnull align 8 dereferenceable(767680) %0) #1 align 2 {
  %2 = alloca ptr, align 8
  store ptr %0, ptr %2, align 8, !tbaa !6
  %3 = load ptr, ptr %2, align 8
  %4 = call noundef i32 @_ZN6LibRaw4get4Ev(ptr noundef nonnull align 8 dereferenceable(767680) %3)
  %5 = zext i32 %4 to i64
  %6 = getelementptr inbounds nuw %class.LibRaw, ptr %3, i32 0, i32 1
  %7 = getelementptr inbounds nuw %struct.libraw_data_t, ptr %6, i32 0, i32 3
  %8 = getelementptr inbounds nuw %struct.libraw_lensinfo_t, ptr %7, i32 0, i32 12
  %9 = getelementptr inbounds nuw %struct.libraw_makernotes_lens_t, ptr %8, i32 0, i32 0
  store i64 %5, ptr %9, align 8, !tbaa !79
  %10 = getelementptr inbounds nuw %class.LibRaw, ptr %3, i32 0, i32 1
  %11 = getelementptr inbounds nuw %struct.libraw_data_t, ptr %10, i32 0, i32 3
  %12 = getelementptr inbounds nuw %struct.libraw_lensinfo_t, ptr %11, i32 0, i32 12
  %13 = getelementptr inbounds nuw %struct.libraw_makernotes_lens_t, ptr %12, i32 0, i32 0
  %14 = load i64, ptr %13, align 8, !tbaa !79
  %15 = icmp ne i64 %14, 0
  br i1 %15, label %16, label %63

16:                                               ; preds = %1
  %17 = getelementptr inbounds nuw %class.LibRaw, ptr %3, i32 0, i32 1
  %18 = getelementptr inbounds nuw %struct.libraw_data_t, ptr %17, i32 0, i32 3
  %19 = getelementptr inbounds nuw %struct.libraw_lensinfo_t, ptr %18, i32 0, i32 12
  %20 = getelementptr inbounds nuw %struct.libraw_makernotes_lens_t, ptr %19, i32 0, i32 0
  %21 = load i64, ptr %20, align 8, !tbaa !79
  %22 = lshr i64 %21, 2
  %23 = shl i64 %22, 8
  %24 = getelementptr inbounds nuw %class.LibRaw, ptr %3, i32 0, i32 1
  %25 = getelementptr inbounds nuw %struct.libraw_data_t, ptr %24, i32 0, i32 3
  %26 = getelementptr inbounds nuw %struct.libraw_lensinfo_t, ptr %25, i32 0, i32 12
  %27 = getelementptr inbounds nuw %struct.libraw_makernotes_lens_t, ptr %26, i32 0, i32 0
  %28 = load i64, ptr %27, align 8, !tbaa !79
  %29 = and i64 %28, 3
  %30 = or i64 %23, %29
  %31 = getelementptr inbounds nuw %class.LibRaw, ptr %3, i32 0, i32 1
  %32 = getelementptr inbounds nuw %struct.libraw_data_t, ptr %31, i32 0, i32 3
  %33 = getelementptr inbounds nuw %struct.libraw_lensinfo_t, ptr %32, i32 0, i32 12
  %34 = getelementptr inbounds nuw %struct.libraw_makernotes_lens_t, ptr %33, i32 0, i32 0
  store i64 %30, ptr %34, align 8, !tbaa !79
  %35 = getelementptr inbounds nuw %class.LibRaw, ptr %3, i32 0, i32 1
  %36 = getelementptr inbounds nuw %struct.libraw_data_t, ptr %35, i32 0, i32 3
  %37 = getelementptr inbounds nuw %struct.libraw_lensinfo_t, ptr %36, i32 0, i32 12
  %38 = getelementptr inbounds nuw %struct.libraw_makernotes_lens_t, ptr %37, i32 0, i32 0
  %39 = load i64, ptr %38, align 8, !tbaa !79
  %40 = icmp ugt i64 %39, 255
  br i1 %40, label %41, label %62

41:                                               ; preds = %16
  %42 = getelementptr inbounds nuw %class.LibRaw, ptr %3, i32 0, i32 1
  %43 = getelementptr inbounds nuw %struct.libraw_data_t, ptr %42, i32 0, i32 3
  %44 = getelementptr inbounds nuw %struct.libraw_lensinfo_t, ptr %43, i32 0, i32 12
  %45 = getelementptr inbounds nuw %struct.libraw_makernotes_lens_t, ptr %44, i32 0, i32 0
  %46 = load i64, ptr %45, align 8, !tbaa !79
  %47 = icmp ult i64 %46, 15104
  br i1 %47, label %48, label %62

48:                                               ; preds = %41
  %49 = getelementptr inbounds nuw %class.LibRaw, ptr %3, i32 0, i32 1
  %50 = getelementptr inbounds nuw %struct.libraw_data_t, ptr %49, i32 0, i32 3
  %51 = getelementptr inbounds nuw %struct.libraw_lensinfo_t, ptr %50, i32 0, i32 12
  %52 = getelementptr inbounds nuw %struct.libraw_makernotes_lens_t, ptr %51, i32 0, i32 6
  %53 = load i16, ptr %52, align 2, !tbaa !74
  %54 = getelementptr inbounds nuw %class.LibRaw, ptr %3, i32 0, i32 1
  %55 = getelementptr inbounds nuw %struct.libraw_data_t, ptr %54, i32 0, i32 3
  %56 = getelementptr inbounds nuw %struct.libraw_lensinfo_t, ptr %55, i32 0, i32 12
  %57 = getelementptr inbounds nuw %struct.libraw_makernotes_lens_t, ptr %56, i32 0, i32 3
  store i16 %53, ptr %57, align 2, !tbaa !76
  %58 = getelementptr inbounds nuw %class.LibRaw, ptr %3, i32 0, i32 1
  %59 = getelementptr inbounds nuw %struct.libraw_data_t, ptr %58, i32 0, i32 3
  %60 = getelementptr inbounds nuw %struct.libraw_lensinfo_t, ptr %59, i32 0, i32 12
  %61 = getelementptr inbounds nuw %struct.libraw_makernotes_lens_t, ptr %60, i32 0, i32 2
  store i16 2, ptr %61, align 8, !tbaa !78
  br label %62

62:                                               ; preds = %48, %41, %16
  br label %63

63:                                               ; preds = %62, %1
  ret void
}