; Function Attrs: mustprogress uwtable
define void @_ZN6LibRaw16parseLeicaLensIDEv(ptr noundef nonnull align 8 dereferenceable(767680) %0) local_unnamed_addr #1 align 2 {
  %2 = tail call noundef i32 @_ZN6LibRaw4get4Ev(ptr noundef nonnull align 8 dereferenceable(767680) %0)
  %3 = zext i32 %2 to i64
  %4 = getelementptr inbounds nuw i8, ptr %0, i64 1200
  store i64 %3, ptr %4, align 8, !tbaa !76
  %.not = icmp eq i32 %2, 0
  br i1 %.not, label %16, label %5

5:                                                ; preds = %1
  %6 = shl nuw nsw i64 %3, 6
  %7 = and i64 %6, 274877906688
  %8 = and i64 %3, 3
  %9 = or disjoint i64 %7, %8
  store i64 %9, ptr %4, align 8, !tbaa !76
  %10 = add i32 %2, -4
  %or.cond = icmp ult i32 %10, 232
  br i1 %or.cond, label %11, label %16

11:                                               ; preds = %5
  %12 = getelementptr inbounds nuw i8, ptr %0, i64 1354
  %13 = load i16, ptr %12, align 2, !tbaa !71
  %14 = getelementptr inbounds nuw i8, ptr %0, i64 1338
  store i16 %13, ptr %14, align 2, !tbaa !73
  %15 = getelementptr inbounds nuw i8, ptr %0, i64 1336
  store i16 2, ptr %15, align 8, !tbaa !75
  br label %16

16:                                               ; preds = %5, %11, %1
  ret void
}